target datalayout = "e-m:e-p270:32:32-p271:32:32-p272:64:64-i64:64-i128:128-f80:128-n8:16:32:64-S128"
target triple = "x86_64-pc-linux-gnu"

; Function Attrs: mustprogress nounwind uwtable
define internal void @_ZN7Imf_3_4L15istream_destroyEPK19_priv_exr_context_tPvi(ptr noundef %0, ptr noundef %1, i32 noundef %2) #2 {
  %4 = alloca ptr, align 8
  %5 = alloca ptr, align 8
  %6 = alloca i32, align 4
  %7 = alloca ptr, align 8
  store ptr %0, ptr %4, align 8, !tbaa !31
  store ptr %1, ptr %5, align 8, !tbaa !33
  store i32 %2, ptr %6, align 4, !tbaa !39
  call void @llvm.lifetime.start.p0(i64 8, ptr %7) #15
  %8 = load ptr, ptr %5, align 8, !tbaa !33
  store ptr %8, ptr %7, align 8, !tbaa !25
  %9 = load ptr, ptr %7, align 8, !tbaa !25
  %10 = icmp eq ptr %9, null
  br i1 %10, label %12, label %11

11:                                               ; preds = %3
  call void @_ZdlPvm(ptr noundef %9, i64 noundef 48) #14
  br label %12

12:                                               ; preds = %11, %3
  call void @llvm.lifetime.end.p0(i64 8, ptr %7) #15
  ret void
}